; Function Attrs: mustprogress uwtable
define void @_ZN3gmx20InMemoryDeserializer6doRvecEPA3_f(ptr noundef nonnull align 8 dereferenceable(16) %0, ptr noundef %1) unnamed_addr #1 align 2 {
  br label %3

3:                                                ; preds = %2, %3
  %.0.idx9 = phi i64 [ 0, %2 ], [ %.0.add, %3 ]
  %.0.ptr = getelementptr inbounds i8, ptr %1, i64 %.0.idx9
  %4 = load ptr, ptr %0, align 8
  %5 = getelementptr inbounds i8, ptr %4, i64 96
  %6 = load ptr, ptr %5, align 8
  tail call void %6(ptr noundef nonnull align 8 dereferenceable(16) %0, ptr noundef %.0.ptr)
  %.0.add = add nuw nsw i64 %.0.idx9, 4
  %.not = icmp eq i64 %.0.add, 12
  br i1 %.not, label %7, label %3

7:                                                ; preds = %3
  ret void
}